; Function Attrs: nounwind uwtable
define void @Str_MuxStructDump(ptr noundef %0, ptr noundef %1, ptr noundef initializes((4, 8)) %2) local_unnamed_addr #0 {
  %4 = load i64, ptr %1, align 4
  %5 = or i64 %4, 1073741824
  store i64 %5, ptr %1, align 4
  %6 = getelementptr inbounds nuw i8, ptr %2, i64 4
  store i32 0, ptr %6, align 4, !tbaa !65
  tail call void @Str_MuxStructDump_rec(ptr noundef %0, ptr noundef nonnull %1, ptr noundef %2)
  %7 = load i32, ptr %6, align 4, !tbaa !65
  %8 = load i32, ptr %2, align 8, !tbaa !67
  %9 = icmp eq i32 %7, %8
  br i1 %9, label %10, label %.Vec_StrGrow.exit10_crit_edge.i

.Vec_StrGrow.exit10_crit_edge.i:                  ; preds = %3
  %.phi.trans.insert.i = getelementptr inbounds nuw i8, ptr %2, i64 8
  %.pre.i = load ptr, ptr %.phi.trans.insert.i, align 8, !tbaa !68
  br label %Vec_StrPush.exit

10:                                               ; preds = %3
  %11 = icmp slt i32 %7, 16
  br i1 %11, label %12, label %20

12:                                               ; preds = %10
  %13 = getelementptr inbounds nuw i8, ptr %2, i64 8
  %14 = load ptr, ptr %13, align 8, !tbaa !68
  %.not9.i.i = icmp eq ptr %14, null
  br i1 %.not9.i.i, label %17, label %15

15:                                               ; preds = %12
  %16 = tail call dereferenceable_or_null(16) ptr @realloc(ptr noundef nonnull %14, i64 noundef 16) #29
  br label %Vec_StrGrow.exit.i

17:                                               ; preds = %12
  %18 = tail call noalias dereferenceable_or_null(16) ptr @malloc(i64 noundef 16) #28
  br label %Vec_StrGrow.exit.i

Vec_StrGrow.exit.i:                               ; preds = %17, %15
  %19 = phi ptr [ %16, %15 ], [ %18, %17 ]
  store ptr %19, ptr %13, align 8, !tbaa !68
  store i32 16, ptr %2, align 8, !tbaa !67
  br label %Vec_StrPush.exit

20:                                               ; preds = %10
  %21 = shl nuw nsw i32 %7, 1
  %22 = getelementptr inbounds nuw i8, ptr %2, i64 8
  %23 = load ptr, ptr %22, align 8, !tbaa !68
  %.not9.i9.i = icmp eq ptr %23, null
  %24 = zext nneg i32 %21 to i64
  br i1 %.not9.i9.i, label %27, label %25

25:                                               ; preds = %20
  %26 = tail call ptr @realloc(ptr noundef nonnull %23, i64 noundef %24) #29
  br label %29

27:                                               ; preds = %20
  %28 = tail call noalias ptr @malloc(i64 noundef %24) #28
  br label %29

29:                                               ; preds = %27, %25
  %30 = phi ptr [ %26, %25 ], [ %28, %27 ]
  store ptr %30, ptr %22, align 8, !tbaa !68
  store i32 %21, ptr %2, align 8, !tbaa !67
  br label %Vec_StrPush.exit

Vec_StrPush.exit:                                 ; preds = %.Vec_StrGrow.exit10_crit_edge.i, %Vec_StrGrow.exit.i, %29
  %31 = phi ptr [ %.pre.i, %.Vec_StrGrow.exit10_crit_edge.i ], [ %30, %29 ], [ %19, %Vec_StrGrow.exit.i ]
  %32 = load i32, ptr %6, align 4, !tbaa !65
  %33 = add nsw i32 %32, 1
  store i32 %33, ptr %6, align 4, !tbaa !65
  %34 = sext i32 %32 to i64
  %35 = getelementptr inbounds i8, ptr %31, i64 %34
  store i8 0, ptr %35, align 1, !tbaa !69
  %36 = load i64, ptr %1, align 4
  %37 = and i64 %36, -1073741825
  store i64 %37, ptr %1, align 4
  ret void
}